target datalayout = "e-m:e-p270:32:32-p271:32:32-p272:64:64-i64:64-i128:128-f80:128-n8:16:32:64-S128"
target triple = "x86_64-unknown-linux-gnu"

%struct.inspect_extent_util_stats_s = type { i64, i64, i64 }

; Function Attrs: nounwind uwtable
define internal i32 @experimental_utilization_batch_query_ctl(ptr noundef %tsd, ptr noundef %mib, i64 noundef %miblen, ptr noundef %oldp, ptr noundef %oldlenp, ptr noundef %newp, i64 noundef %newlen) #0 {
entry:
  %tsd.addr.i = alloca ptr, align 8
  %tsd.addr = alloca ptr, align 8
  %mib.addr = alloca ptr, align 8
  %miblen.addr = alloca i64, align 8
  %oldp.addr = alloca ptr, align 8
  %oldlenp.addr = alloca ptr, align 8
  %newp.addr = alloca ptr, align 8
  %newlen.addr = alloca i64, align 8
  %ret = alloca i32, align 4
  %len = alloca i64, align 8
  %ptrs = alloca ptr, align 8
  %util_stats = alloca ptr, align 8
  %i = alloca i64, align 8
  store ptr %tsd, ptr %tsd.addr, align 8
  store ptr %mib, ptr %mib.addr, align 8
  store i64 %miblen, ptr %miblen.addr, align 8
  store ptr %oldp, ptr %oldp.addr, align 8
  store ptr %oldlenp, ptr %oldlenp.addr, align 8
  store ptr %newp, ptr %newp.addr, align 8
  store i64 %newlen, ptr %newlen.addr, align 8
  br label %do.body

do.body:                                          ; preds = %entry
  br label %do.end

do.end:                                           ; preds = %do.body
  %0 = load i64, ptr %newlen.addr, align 8
  %div = udiv i64 %0, 8
  store i64 %div, ptr %len, align 8
  %1 = load ptr, ptr %oldp.addr, align 8
  %cmp = icmp eq ptr %1, null
  br i1 %cmp, label %if.then, label %lor.lhs.false

lor.lhs.false:                                    ; preds = %do.end
  %2 = load ptr, ptr %oldlenp.addr, align 8
  %cmp1 = icmp eq ptr %2, null
  br i1 %cmp1, label %if.then, label %lor.lhs.false2

lor.lhs.false2:                                   ; preds = %lor.lhs.false
  %3 = load ptr, ptr %newp.addr, align 8
  %cmp3 = icmp eq ptr %3, null
  br i1 %cmp3, label %if.then, label %lor.lhs.false4

lor.lhs.false4:                                   ; preds = %lor.lhs.false2
  %4 = load i64, ptr %newlen.addr, align 8
  %cmp5 = icmp eq i64 %4, 0
  br i1 %cmp5, label %if.then, label %lor.lhs.false6

lor.lhs.false6:                                   ; preds = %lor.lhs.false4
  %5 = load i64, ptr %newlen.addr, align 8
  %6 = load i64, ptr %len, align 8
  %mul = mul i64 %6, 8
  %cmp7 = icmp ne i64 %5, %mul
  br i1 %cmp7, label %if.then, label %lor.lhs.false8

lor.lhs.false8:                                   ; preds = %lor.lhs.false6
  %7 = load ptr, ptr %oldlenp.addr, align 8
  %8 = load i64, ptr %7, align 8
  %9 = load i64, ptr %len, align 8
  %mul9 = mul i64 %9, 24
  %cmp10 = icmp ne i64 %8, %mul9
  br i1 %cmp10, label %if.then, label %if.end

if.then:                                          ; preds = %lor.lhs.false8, %lor.lhs.false6, %lor.lhs.false4, %lor.lhs.false2, %lor.lhs.false, %do.end
  store i32 22, ptr %ret, align 4
  br label %label_return

if.end:                                           ; preds = %lor.lhs.false8
  %10 = load ptr, ptr %newp.addr, align 8
  store ptr %10, ptr %ptrs, align 8
  %11 = load ptr, ptr %oldp.addr, align 8
  store ptr %11, ptr %util_stats, align 8
  store i64 0, ptr %i, align 8
  br label %for.cond

for.cond:                                         ; preds = %for.inc, %if.end
  %12 = load i64, ptr %i, align 8
  %13 = load i64, ptr %len, align 8
  %cmp11 = icmp ult i64 %12, %13
  br i1 %cmp11, label %for.body, label %for.end

for.body:                                         ; preds = %for.cond
  %14 = load ptr, ptr %tsd.addr, align 8
  store ptr %14, ptr %tsd.addr.i, align 8
  %15 = load ptr, ptr %tsd.addr.i, align 8
  %16 = load ptr, ptr %ptrs, align 8
  %17 = load i64, ptr %i, align 8
  %arrayidx = getelementptr inbounds ptr, ptr %16, i64 %17
  %18 = load ptr, ptr %arrayidx, align 8
  %19 = load ptr, ptr %util_stats, align 8
  %20 = load i64, ptr %i, align 8
  %arrayidx12 = getelementptr inbounds %struct.inspect_extent_util_stats_s, ptr %19, i64 %20
  %nfree = getelementptr inbounds %struct.inspect_extent_util_stats_s, ptr %arrayidx12, i32 0, i32 0
  %21 = load ptr, ptr %util_stats, align 8
  %22 = load i64, ptr %i, align 8
  %arrayidx13 = getelementptr inbounds %struct.inspect_extent_util_stats_s, ptr %21, i64 %22
  %nregs = getelementptr inbounds %struct.inspect_extent_util_stats_s, ptr %arrayidx13, i32 0, i32 1
  %23 = load ptr, ptr %util_stats, align 8
  %24 = load i64, ptr %i, align 8
  %arrayidx14 = getelementptr inbounds %struct.inspect_extent_util_stats_s, ptr %23, i64 %24
  %size = getelementptr inbounds %struct.inspect_extent_util_stats_s, ptr %arrayidx14, i32 0, i32 2
  call void @inspect_extent_util_stats_get(ptr noundef %15, ptr noundef %18, ptr noundef %nfree, ptr noundef %nregs, ptr noundef %size)
  br label %for.inc

for.inc:                                          ; preds = %for.body
  %25 = load i64, ptr %i, align 8
  %inc = add i64 %25, 1
  store i64 %inc, ptr %i, align 8
  br label %for.cond, !llvm.loop !29

for.end:                                          ; preds = %for.cond
  store i32 0, ptr %ret, align 4
  br label %label_return

label_return:                                     ; preds = %for.end, %if.then
  %26 = load i32, ptr %ret, align 4
  ret i32 %26
}