; Function Attrs: nounwind uwtable
define internal noundef i32 @experimental_utilization_batch_query_ctl(ptr noundef %tsd, ptr nocapture readnone %mib, i64 %miblen, ptr noundef %oldp, ptr noundef readonly %oldlenp, ptr noundef readonly %newp, i64 noundef %newlen) #0 {
entry:
  %div17 = lshr i64 %newlen, 3
  %cmp = icmp ne ptr %oldp, null
  %cmp1 = icmp ne ptr %oldlenp, null
  %or.cond.not21 = and i1 %cmp, %cmp1
  %cmp3 = icmp ne ptr %newp, null
  %or.cond1.not20 = and i1 %or.cond.not21, %cmp3
  %cmp5 = icmp ne i64 %newlen, 0
  %or.cond2.not19 = and i1 %or.cond1.not20, %cmp5
  %0 = and i64 %newlen, 7
  %cmp7.not = icmp eq i64 %0, 0
  %or.cond18 = and i1 %or.cond2.not19, %cmp7.not
  br i1 %or.cond18, label %lor.lhs.false8, label %label_return

lor.lhs.false8:                                   ; preds = %entry
  %1 = load i64, ptr %oldlenp, align 8
  %mul9 = mul i64 %div17, 24
  %cmp10.not = icmp eq i64 %1, %mul9
  br i1 %cmp10.not, label %for.cond.preheader, label %label_return

for.cond.preheader:                               ; preds = %lor.lhs.false8
  %cmp1122.not = icmp ult i64 %newlen, 8
  br i1 %cmp1122.not, label %label_return, label %for.body

for.body:                                         ; preds = %for.cond.preheader, %for.body
  %i.023 = phi i64 [ %inc, %for.body ], [ 0, %for.cond.preheader ]
  %arrayidx = getelementptr inbounds ptr, ptr %newp, i64 %i.023
  %2 = load ptr, ptr %arrayidx, align 8
  %arrayidx12 = getelementptr inbounds %struct.inspect_extent_util_stats_s, ptr %oldp, i64 %i.023
  %nregs = getelementptr inbounds i8, ptr %arrayidx12, i64 8
  %size = getelementptr inbounds i8, ptr %arrayidx12, i64 16
  tail call void @inspect_extent_util_stats_get(ptr noundef %tsd, ptr noundef %2, ptr noundef nonnull %arrayidx12, ptr noundef nonnull %nregs, ptr noundef nonnull %size) #14
  %inc = add nuw nsw i64 %i.023, 1
  %exitcond.not = icmp eq i64 %inc, %div17
  br i1 %exitcond.not, label %label_return, label %for.body, !llvm.loop !30

label_return:                                     ; preds = %for.body, %for.cond.preheader, %entry, %lor.lhs.false8
  %ret.0 = phi i32 [ 22, %lor.lhs.false8 ], [ 22, %entry ], [ 0, %for.cond.preheader ], [ 0, %for.body ]
  ret i32 %ret.0
}